ARM GAS  /tmp/ccbaESsS.s 			page 1


   1              		.cpu cortex-m4
   2              		.arch armv7e-m
   3              		.fpu fpv4-sp-d16
   4              		.eabi_attribute 27, 1
   5              		.eabi_attribute 28, 1
   6              		.eabi_attribute 20, 1
   7              		.eabi_attribute 21, 1
   8              		.eabi_attribute 23, 3
   9              		.eabi_attribute 24, 1
  10              		.eabi_attribute 25, 1
  11              		.eabi_attribute 26, 1
  12              		.eabi_attribute 30, 1
  13              		.eabi_attribute 34, 1
  14              		.eabi_attribute 18, 4
  15              		.file	"AT_COMMAND_TESTING_CN.c"
  16              		.text
  17              	.Ltext0:
  18              		.cfi_sections	.debug_frame
  19              		.section	.text.SEND_STRING,"ax",%progbits
  20              		.align	1
  21              		.global	SEND_STRING
  22              		.syntax unified
  23              		.thumb
  24              		.thumb_func
  26              	SEND_STRING:
  27              	.LVL0:
  28              	.LFB130:
  29              		.file 1 "Core/Src/AT_COMMAND_TESTING_CN.c"
   1:Core/Src/AT_COMMAND_TESTING_CN.c **** #include "AT_COMMAND_TESTING_CN.h"
   2:Core/Src/AT_COMMAND_TESTING_CN.c **** #include "string.h"
   3:Core/Src/AT_COMMAND_TESTING_CN.c **** 
   4:Core/Src/AT_COMMAND_TESTING_CN.c **** void SEND_STRING(char *str)
   5:Core/Src/AT_COMMAND_TESTING_CN.c **** {
  30              		.loc 1 5 1 view -0
  31              		.cfi_startproc
  32              		@ args = 0, pretend = 0, frame = 0
  33              		@ frame_needed = 0, uses_anonymous_args = 0
  34              		@ link register save eliminated.
   6:Core/Src/AT_COMMAND_TESTING_CN.c **** 
   7:Core/Src/AT_COMMAND_TESTING_CN.c **** while(*str != '\0' )
  35              		.loc 1 7 1 view .LVU1
  36              		.loc 1 7 6 is_stmt 0 view .LVU2
  37 0000 07E0     		b	.L2
  38              	.L4:
   8:Core/Src/AT_COMMAND_TESTING_CN.c **** {
   9:Core/Src/AT_COMMAND_TESTING_CN.c **** USART1->DR = (*str++);
  39              		.loc 1 9 1 is_stmt 1 view .LVU3
  40              		.loc 1 9 19 is_stmt 0 view .LVU4
  41 0002 0130     		adds	r0, r0, #1
  42              	.LVL1:
  43              		.loc 1 9 12 view .LVU5
  44 0004 054A     		ldr	r2, .L5
  45 0006 5360     		str	r3, [r2, #4]
  10:Core/Src/AT_COMMAND_TESTING_CN.c **** 	while (!(USART1->SR & (1<<6)));  
  46              		.loc 1 10 2 is_stmt 1 view .LVU6
  47              	.L3:
  48              		.loc 1 10 32 discriminator 1 view .LVU7
ARM GAS  /tmp/ccbaESsS.s 			page 2


  49              		.loc 1 10 8 discriminator 1 view .LVU8
  50              		.loc 1 10 17 is_stmt 0 discriminator 1 view .LVU9
  51 0008 044B     		ldr	r3, .L5
  52 000a 1B68     		ldr	r3, [r3]
  53              		.loc 1 10 8 discriminator 1 view .LVU10
  54 000c 13F0400F 		tst	r3, #64
  55 0010 FAD0     		beq	.L3
  56              	.L2:
   7:Core/Src/AT_COMMAND_TESTING_CN.c **** {
  57              		.loc 1 7 6 is_stmt 1 view .LVU11
   7:Core/Src/AT_COMMAND_TESTING_CN.c **** {
  58              		.loc 1 7 7 is_stmt 0 view .LVU12
  59 0012 0378     		ldrb	r3, [r0]	@ zero_extendqisi2
   7:Core/Src/AT_COMMAND_TESTING_CN.c **** {
  60              		.loc 1 7 6 view .LVU13
  61 0014 002B     		cmp	r3, #0
  62 0016 F4D1     		bne	.L4
  11:Core/Src/AT_COMMAND_TESTING_CN.c **** }
  12:Core/Src/AT_COMMAND_TESTING_CN.c **** }
  63              		.loc 1 12 1 view .LVU14
  64 0018 7047     		bx	lr
  65              	.L6:
  66 001a 00BF     		.align	2
  67              	.L5:
  68 001c 00100140 		.word	1073811456
  69              		.cfi_endproc
  70              	.LFE130:
  72              		.section	.text.USART1_CONFIG,"ax",%progbits
  73              		.align	1
  74              		.global	USART1_CONFIG
  75              		.syntax unified
  76              		.thumb
  77              		.thumb_func
  79              	USART1_CONFIG:
  80              	.LFB131:
  13:Core/Src/AT_COMMAND_TESTING_CN.c **** 
  14:Core/Src/AT_COMMAND_TESTING_CN.c **** void USART1_CONFIG(void)
  15:Core/Src/AT_COMMAND_TESTING_CN.c **** {
  81              		.loc 1 15 1 is_stmt 1 view -0
  82              		.cfi_startproc
  83              		@ args = 0, pretend = 0, frame = 0
  84              		@ frame_needed = 0, uses_anonymous_args = 0
  85              		@ link register save eliminated.
  16:Core/Src/AT_COMMAND_TESTING_CN.c **** 
  17:Core/Src/AT_COMMAND_TESTING_CN.c ****   RCC->AHB1ENR |= 0x0001;
  86              		.loc 1 17 3 view .LVU16
  87              		.loc 1 17 16 is_stmt 0 view .LVU17
  88 0000 1D4B     		ldr	r3, .L8
  89 0002 1A6B     		ldr	r2, [r3, #48]
  90 0004 42F00102 		orr	r2, r2, #1
  91 0008 1A63     		str	r2, [r3, #48]
  18:Core/Src/AT_COMMAND_TESTING_CN.c ****   RCC->APB2ENR |= 0x0010;
  92              		.loc 1 18 3 is_stmt 1 view .LVU18
  93              		.loc 1 18 16 is_stmt 0 view .LVU19
  94 000a 5A6C     		ldr	r2, [r3, #68]
  95 000c 42F01002 		orr	r2, r2, #16
  96 0010 5A64     		str	r2, [r3, #68]
ARM GAS  /tmp/ccbaESsS.s 			page 3


  19:Core/Src/AT_COMMAND_TESTING_CN.c ****   GPIOA->MODER |= (2<<18);
  97              		.loc 1 19 3 is_stmt 1 view .LVU20
  98              		.loc 1 19 16 is_stmt 0 view .LVU21
  99 0012 A3F56053 		sub	r3, r3, #14336
 100 0016 1A68     		ldr	r2, [r3]
 101 0018 42F40022 		orr	r2, r2, #524288
 102 001c 1A60     		str	r2, [r3]
  20:Core/Src/AT_COMMAND_TESTING_CN.c ****   GPIOA->MODER |= (2<<20);
 103              		.loc 1 20 3 is_stmt 1 view .LVU22
 104              		.loc 1 20 16 is_stmt 0 view .LVU23
 105 001e 1A68     		ldr	r2, [r3]
 106 0020 42F40012 		orr	r2, r2, #2097152
 107 0024 1A60     		str	r2, [r3]
  21:Core/Src/AT_COMMAND_TESTING_CN.c **** 
  22:Core/Src/AT_COMMAND_TESTING_CN.c **** 
  23:Core/Src/AT_COMMAND_TESTING_CN.c ****   GPIOA->AFR[1] |= (7<<8);
 108              		.loc 1 23 3 is_stmt 1 view .LVU24
 109              		.loc 1 23 17 is_stmt 0 view .LVU25
 110 0026 5A6A     		ldr	r2, [r3, #36]
 111 0028 42F4E062 		orr	r2, r2, #1792
 112 002c 5A62     		str	r2, [r3, #36]
  24:Core/Src/AT_COMMAND_TESTING_CN.c ****   GPIOA->AFR[1] |= (7<<4);
 113              		.loc 1 24 3 is_stmt 1 view .LVU26
 114              		.loc 1 24 17 is_stmt 0 view .LVU27
 115 002e 5A6A     		ldr	r2, [r3, #36]
 116 0030 42F07002 		orr	r2, r2, #112
 117 0034 5A62     		str	r2, [r3, #36]
  25:Core/Src/AT_COMMAND_TESTING_CN.c **** 
  26:Core/Src/AT_COMMAND_TESTING_CN.c ****   USART1->CR1  =   0x00;   // Clear ALL
 118              		.loc 1 26 3 is_stmt 1 view .LVU28
 119              		.loc 1 26 16 is_stmt 0 view .LVU29
 120 0036 A3F57043 		sub	r3, r3, #61440
 121 003a 0022     		movs	r2, #0
 122 003c DA60     		str	r2, [r3, #12]
  27:Core/Src/AT_COMMAND_TESTING_CN.c ****   USART1->CR1 |=   (1<<13);   // UE = 1... Enable USART
 123              		.loc 1 27 3 is_stmt 1 view .LVU30
 124              		.loc 1 27 15 is_stmt 0 view .LVU31
 125 003e DA68     		ldr	r2, [r3, #12]
 126 0040 42F40052 		orr	r2, r2, #8192
 127 0044 DA60     		str	r2, [r3, #12]
  28:Core/Src/AT_COMMAND_TESTING_CN.c **** 
  29:Core/Src/AT_COMMAND_TESTING_CN.c ****   USART1->CR1 &=  ~(1<<12); // M= 0 -> LENGTH = 8BITS. CONSISTS 1 BIT START 8 BIT DATA AND 1 BIT ST
 128              		.loc 1 29 3 is_stmt 1 view .LVU32
 129              		.loc 1 29 15 is_stmt 0 view .LVU33
 130 0046 DA68     		ldr	r2, [r3, #12]
 131 0048 22F48052 		bic	r2, r2, #4096
 132 004c DA60     		str	r2, [r3, #12]
  30:Core/Src/AT_COMMAND_TESTING_CN.c ****   USART1->CR2 &=  ~(3<<12); //STOP = 00 -> STOP BITS = 1
 133              		.loc 1 30 3 is_stmt 1 view .LVU34
 134              		.loc 1 30 15 is_stmt 0 view .LVU35
 135 004e 1A69     		ldr	r2, [r3, #16]
 136 0050 22F44052 		bic	r2, r2, #12288
 137 0054 1A61     		str	r2, [r3, #16]
  31:Core/Src/AT_COMMAND_TESTING_CN.c ****   USART1->CR3 &=  ~(1<<7); // DMA TRANSMIT DISABLE
 138              		.loc 1 31 3 is_stmt 1 view .LVU36
 139              		.loc 1 31 15 is_stmt 0 view .LVU37
 140 0056 5A69     		ldr	r2, [r3, #20]
ARM GAS  /tmp/ccbaESsS.s 			page 4


 141 0058 22F08002 		bic	r2, r2, #128
 142 005c 5A61     		str	r2, [r3, #20]
  32:Core/Src/AT_COMMAND_TESTING_CN.c ****   USART1->BRR |=  0x364;
 143              		.loc 1 32 3 is_stmt 1 view .LVU38
 144              		.loc 1 32 15 is_stmt 0 view .LVU39
 145 005e 9A68     		ldr	r2, [r3, #8]
 146 0060 42F45972 		orr	r2, r2, #868
 147 0064 9A60     		str	r2, [r3, #8]
  33:Core/Src/AT_COMMAND_TESTING_CN.c **** 
  34:Core/Src/AT_COMMAND_TESTING_CN.c **** 
  35:Core/Src/AT_COMMAND_TESTING_CN.c ****   USART1->CR1 |= (1<<2); // RE=1.. Enable the Receiver
 148              		.loc 1 35 3 is_stmt 1 view .LVU40
 149              		.loc 1 35 15 is_stmt 0 view .LVU41
 150 0066 DA68     		ldr	r2, [r3, #12]
 151 0068 42F00402 		orr	r2, r2, #4
 152 006c DA60     		str	r2, [r3, #12]
  36:Core/Src/AT_COMMAND_TESTING_CN.c ****   USART1->CR1 |= (1<<3);  // TE=1.. Enable Transmitter
 153              		.loc 1 36 3 is_stmt 1 view .LVU42
 154              		.loc 1 36 15 is_stmt 0 view .LVU43
 155 006e DA68     		ldr	r2, [r3, #12]
 156 0070 42F00802 		orr	r2, r2, #8
 157 0074 DA60     		str	r2, [r3, #12]
  37:Core/Src/AT_COMMAND_TESTING_CN.c **** 
  38:Core/Src/AT_COMMAND_TESTING_CN.c **** 
  39:Core/Src/AT_COMMAND_TESTING_CN.c **** }
 158              		.loc 1 39 1 view .LVU44
 159 0076 7047     		bx	lr
 160              	.L9:
 161              		.align	2
 162              	.L8:
 163 0078 00380240 		.word	1073887232
 164              		.cfi_endproc
 165              	.LFE131:
 167              		.section	.rodata.AT_SEND_COMMAND.str1.4,"aMS",%progbits,1
 168              		.align	2
 169              	.LC0:
 170 0000 41540D0A 		.ascii	"AT\015\012\000"
 170      00
 171 0005 000000   		.align	2
 172              	.LC1:
 173 0008 4154490D 		.ascii	"ATI\015\012\000"
 173      0A00
 174 000e 0000     		.align	2
 175              	.LC2:
 176 0010 41542B43 		.ascii	"AT+CPIN?\015\012\000"
 176      50494E3F 
 176      0D0A00
 177 001b 00       		.align	2
 178              	.LC3:
 179 001c 41542B43 		.ascii	"AT+COPS?\015\012\000"
 179      4F50533F 
 179      0D0A00
 180 0027 00       		.align	2
 181              	.LC4:
 182 0028 41542B43 		.ascii	"AT+CGREG?\015\012\000"
 182      47524547 
 182      3F0D0A00 
ARM GAS  /tmp/ccbaESsS.s 			page 5


 183              		.align	2
 184              	.LC5:
 185 0034 41542B43 		.ascii	"AT+CSQ\015\012\000"
 185      53510D0A 
 185      00
 186 003d 000000   		.align	2
 187              	.LC6:
 188 0040 41542B43 		.ascii	"AT+CPSMS=1\015\012\000"
 188      50534D53 
 188      3D310D0A 
 188      00
 189 004d 000000   		.align	2
 190              	.LC7:
 191 0050 4154450D 		.ascii	"ATE\015\012\000"
 191      0A00
 192 0056 0000     		.align	2
 193              	.LC8:
 194 0058 41542B43 		.ascii	"AT+CFUN=1\015\012\000"
 194      46554E3D 
 194      310D0A00 
 195              		.align	2
 196              	.LC9:
 197 0064 41542B43 		.ascii	"AT+CPSMS=?\015\012\000"
 197      50534D53 
 197      3D3F0D0A 
 197      00
 198              		.section	.text.AT_SEND_COMMAND,"ax",%progbits
 199              		.align	1
 200              		.global	AT_SEND_COMMAND
 201              		.syntax unified
 202              		.thumb
 203              		.thumb_func
 205              	AT_SEND_COMMAND:
 206              	.LFB132:
  40:Core/Src/AT_COMMAND_TESTING_CN.c **** void AT_SEND_COMMAND(void)
  41:Core/Src/AT_COMMAND_TESTING_CN.c **** {
 207              		.loc 1 41 1 is_stmt 1 view -0
 208              		.cfi_startproc
 209              		@ args = 0, pretend = 0, frame = 48
 210              		@ frame_needed = 0, uses_anonymous_args = 0
 211 0000 2DE9F043 		push	{r4, r5, r6, r7, r8, r9, lr}
 212              	.LCFI0:
 213              		.cfi_def_cfa_offset 28
 214              		.cfi_offset 4, -28
 215              		.cfi_offset 5, -24
 216              		.cfi_offset 6, -20
 217              		.cfi_offset 7, -16
 218              		.cfi_offset 8, -12
 219              		.cfi_offset 9, -8
 220              		.cfi_offset 14, -4
 221 0004 8DB0     		sub	sp, sp, #52
 222              	.LCFI1:
 223              		.cfi_def_cfa_offset 80
  42:Core/Src/AT_COMMAND_TESTING_CN.c ****    MODULE_SIM7020C_TESTING __MODULE_SIM7020C_TESTING_FW;
 224              		.loc 1 42 4 view .LVU46
  43:Core/Src/AT_COMMAND_TESTING_CN.c **** 
  44:Core/Src/AT_COMMAND_TESTING_CN.c ****   __MODULE_SIM7020C_TESTING_FW.AT        = "AT\r\n";
ARM GAS  /tmp/ccbaESsS.s 			page 6


 225              		.loc 1 44 3 view .LVU47
 226              		.loc 1 44 42 is_stmt 0 view .LVU48
 227 0006 334D     		ldr	r5, .L12
 228 0008 0095     		str	r5, [sp]
  45:Core/Src/AT_COMMAND_TESTING_CN.c ****   __MODULE_SIM7020C_TESTING_FW.ATI       = "ATI\r\n";
 229              		.loc 1 45 3 is_stmt 1 view .LVU49
 230              		.loc 1 45 42 is_stmt 0 view .LVU50
 231 000a DFF8E890 		ldr	r9, .L12+32
 232 000e CDF80490 		str	r9, [sp, #4]
  46:Core/Src/AT_COMMAND_TESTING_CN.c ****   __MODULE_SIM7020C_TESTING_FW.AT_CPIN   = "AT+CPIN?\r\n";
 233              		.loc 1 46 3 is_stmt 1 view .LVU51
 234              		.loc 1 46 42 is_stmt 0 view .LVU52
 235 0012 DFF8E480 		ldr	r8, .L12+36
 236 0016 CDF80C80 		str	r8, [sp, #12]
  47:Core/Src/AT_COMMAND_TESTING_CN.c ****   __MODULE_SIM7020C_TESTING_FW.AT_COPS   = "AT+COPS?\r\n";
 237              		.loc 1 47 3 is_stmt 1 view .LVU53
 238              		.loc 1 47 42 is_stmt 0 view .LVU54
 239 001a 2F4F     		ldr	r7, .L12+4
 240 001c 0597     		str	r7, [sp, #20]
  48:Core/Src/AT_COMMAND_TESTING_CN.c ****   __MODULE_SIM7020C_TESTING_FW.AT_CGREG  = "AT+CGREG?\r\n";
 241              		.loc 1 48 3 is_stmt 1 view .LVU55
 242              		.loc 1 48 42 is_stmt 0 view .LVU56
 243 001e 2F4C     		ldr	r4, .L12+8
 244 0020 0494     		str	r4, [sp, #16]
  49:Core/Src/AT_COMMAND_TESTING_CN.c ****   __MODULE_SIM7020C_TESTING_FW.AT_CSQ    = "AT+CSQ\r\n";
 245              		.loc 1 49 3 is_stmt 1 view .LVU57
 246              		.loc 1 49 42 is_stmt 0 view .LVU58
 247 0022 2F4E     		ldr	r6, .L12+12
 248 0024 0696     		str	r6, [sp, #24]
  50:Core/Src/AT_COMMAND_TESTING_CN.c **** 
  51:Core/Src/AT_COMMAND_TESTING_CN.c ****  SEND_STRING(__MODULE_SIM7020C_TESTING_FW.AT);
 249              		.loc 1 51 2 is_stmt 1 view .LVU59
 250 0026 2846     		mov	r0, r5
 251 0028 FFF7FEFF 		bl	SEND_STRING
 252              	.LVL2:
  52:Core/Src/AT_COMMAND_TESTING_CN.c ****  HAL_Delay(1000);
 253              		.loc 1 52 2 view .LVU60
 254 002c 4FF47A70 		mov	r0, #1000
 255 0030 FFF7FEFF 		bl	HAL_Delay
 256              	.LVL3:
  53:Core/Src/AT_COMMAND_TESTING_CN.c ****  SEND_STRING(__MODULE_SIM7020C_TESTING_FW.AT);
 257              		.loc 1 53 2 view .LVU61
 258 0034 2846     		mov	r0, r5
 259 0036 FFF7FEFF 		bl	SEND_STRING
 260              	.LVL4:
  54:Core/Src/AT_COMMAND_TESTING_CN.c ****  HAL_Delay(1000);
 261              		.loc 1 54 2 view .LVU62
 262 003a 4FF47A70 		mov	r0, #1000
 263 003e FFF7FEFF 		bl	HAL_Delay
 264              	.LVL5:
  55:Core/Src/AT_COMMAND_TESTING_CN.c ****   SEND_STRING("AT+CPSMS=1\r\n");
 265              		.loc 1 55 3 view .LVU63
 266 0042 2848     		ldr	r0, .L12+16
 267 0044 FFF7FEFF 		bl	SEND_STRING
 268              	.LVL6:
  56:Core/Src/AT_COMMAND_TESTING_CN.c ****  HAL_Delay(1000);
 269              		.loc 1 56 2 view .LVU64
ARM GAS  /tmp/ccbaESsS.s 			page 7


 270 0048 4FF47A70 		mov	r0, #1000
 271 004c FFF7FEFF 		bl	HAL_Delay
 272              	.LVL7:
  57:Core/Src/AT_COMMAND_TESTING_CN.c ****  
  58:Core/Src/AT_COMMAND_TESTING_CN.c ****          SEND_STRING("ATE\r\n");
 273              		.loc 1 58 10 view .LVU65
 274 0050 2548     		ldr	r0, .L12+20
 275 0052 FFF7FEFF 		bl	SEND_STRING
 276              	.LVL8:
  59:Core/Src/AT_COMMAND_TESTING_CN.c ****        HAL_Delay(1000);
 277              		.loc 1 59 8 view .LVU66
 278 0056 4FF47A70 		mov	r0, #1000
 279 005a FFF7FEFF 		bl	HAL_Delay
 280              	.LVL9:
  60:Core/Src/AT_COMMAND_TESTING_CN.c ****  SEND_STRING(__MODULE_SIM7020C_TESTING_FW.ATI);
 281              		.loc 1 60 2 view .LVU67
 282 005e 4846     		mov	r0, r9
 283 0060 FFF7FEFF 		bl	SEND_STRING
 284              	.LVL10:
  61:Core/Src/AT_COMMAND_TESTING_CN.c ****  HAL_Delay(1000);
 285              		.loc 1 61 2 view .LVU68
 286 0064 4FF47A70 		mov	r0, #1000
 287 0068 FFF7FEFF 		bl	HAL_Delay
 288              	.LVL11:
  62:Core/Src/AT_COMMAND_TESTING_CN.c **** 
  63:Core/Src/AT_COMMAND_TESTING_CN.c ****  SEND_STRING(__MODULE_SIM7020C_TESTING_FW.AT_CPIN);
 289              		.loc 1 63 2 view .LVU69
 290 006c 4046     		mov	r0, r8
 291 006e FFF7FEFF 		bl	SEND_STRING
 292              	.LVL12:
  64:Core/Src/AT_COMMAND_TESTING_CN.c ****  HAL_Delay(1000);
 293              		.loc 1 64 2 view .LVU70
 294 0072 4FF47A70 		mov	r0, #1000
 295 0076 FFF7FEFF 		bl	HAL_Delay
 296              	.LVL13:
  65:Core/Src/AT_COMMAND_TESTING_CN.c ****  
  66:Core/Src/AT_COMMAND_TESTING_CN.c ****  SEND_STRING(__MODULE_SIM7020C_TESTING_FW.AT_COPS);
 297              		.loc 1 66 2 view .LVU71
 298 007a 3846     		mov	r0, r7
 299 007c FFF7FEFF 		bl	SEND_STRING
 300              	.LVL14:
  67:Core/Src/AT_COMMAND_TESTING_CN.c ****  HAL_Delay(1000);
 301              		.loc 1 67 2 view .LVU72
 302 0080 4FF47A70 		mov	r0, #1000
 303 0084 FFF7FEFF 		bl	HAL_Delay
 304              	.LVL15:
  68:Core/Src/AT_COMMAND_TESTING_CN.c ****  
  69:Core/Src/AT_COMMAND_TESTING_CN.c ****  SEND_STRING(__MODULE_SIM7020C_TESTING_FW.AT_CGREG);
 305              		.loc 1 69 2 view .LVU73
 306 0088 2046     		mov	r0, r4
 307 008a FFF7FEFF 		bl	SEND_STRING
 308              	.LVL16:
  70:Core/Src/AT_COMMAND_TESTING_CN.c ****  HAL_Delay(1000);
 309              		.loc 1 70 2 view .LVU74
 310 008e 4FF47A70 		mov	r0, #1000
 311 0092 FFF7FEFF 		bl	HAL_Delay
 312              	.LVL17:
ARM GAS  /tmp/ccbaESsS.s 			page 8


  71:Core/Src/AT_COMMAND_TESTING_CN.c ****  
  72:Core/Src/AT_COMMAND_TESTING_CN.c ****         SEND_STRING("AT+CFUN=1\r\n");
 313              		.loc 1 72 9 view .LVU75
 314 0096 1548     		ldr	r0, .L12+24
 315 0098 FFF7FEFF 		bl	SEND_STRING
 316              	.LVL18:
  73:Core/Src/AT_COMMAND_TESTING_CN.c ****        HAL_Delay(1000);
 317              		.loc 1 73 8 view .LVU76
 318 009c 4FF47A70 		mov	r0, #1000
 319 00a0 FFF7FEFF 		bl	HAL_Delay
 320              	.LVL19:
  74:Core/Src/AT_COMMAND_TESTING_CN.c ****   SEND_STRING("AT+CGREG?\r\n");
 321              		.loc 1 74 3 view .LVU77
 322 00a4 2046     		mov	r0, r4
 323 00a6 FFF7FEFF 		bl	SEND_STRING
 324              	.LVL20:
  75:Core/Src/AT_COMMAND_TESTING_CN.c ****        HAL_Delay(1000);
 325              		.loc 1 75 8 view .LVU78
 326 00aa 4FF47A70 		mov	r0, #1000
 327 00ae FFF7FEFF 		bl	HAL_Delay
 328              	.LVL21:
  76:Core/Src/AT_COMMAND_TESTING_CN.c ****       
  77:Core/Src/AT_COMMAND_TESTING_CN.c ****  SEND_STRING("AT+CPSMS=?\r\n");
 329              		.loc 1 77 2 view .LVU79
 330 00b2 0F48     		ldr	r0, .L12+28
 331 00b4 FFF7FEFF 		bl	SEND_STRING
 332              	.LVL22:
  78:Core/Src/AT_COMMAND_TESTING_CN.c ****        HAL_Delay(1000);
 333              		.loc 1 78 8 view .LVU80
 334 00b8 4FF47A70 		mov	r0, #1000
 335 00bc FFF7FEFF 		bl	HAL_Delay
 336              	.LVL23:
  79:Core/Src/AT_COMMAND_TESTING_CN.c ****        
  80:Core/Src/AT_COMMAND_TESTING_CN.c ****  SEND_STRING(__MODULE_SIM7020C_TESTING_FW.AT_CSQ);
 337              		.loc 1 80 2 view .LVU81
 338 00c0 3046     		mov	r0, r6
 339 00c2 FFF7FEFF 		bl	SEND_STRING
 340              	.LVL24:
  81:Core/Src/AT_COMMAND_TESTING_CN.c ****  HAL_Delay(1000);
 341              		.loc 1 81 2 view .LVU82
 342 00c6 4FF47A70 		mov	r0, #1000
 343 00ca FFF7FEFF 		bl	HAL_Delay
 344              	.LVL25:
  82:Core/Src/AT_COMMAND_TESTING_CN.c **** 
  83:Core/Src/AT_COMMAND_TESTING_CN.c **** };
 345              		.loc 1 83 1 is_stmt 0 view .LVU83
 346 00ce 0DB0     		add	sp, sp, #52
 347              	.LCFI2:
 348              		.cfi_def_cfa_offset 28
 349              		@ sp needed
 350 00d0 BDE8F083 		pop	{r4, r5, r6, r7, r8, r9, pc}
 351              	.L13:
 352              		.align	2
 353              	.L12:
 354 00d4 00000000 		.word	.LC0
 355 00d8 1C000000 		.word	.LC3
 356 00dc 28000000 		.word	.LC4
ARM GAS  /tmp/ccbaESsS.s 			page 9


 357 00e0 34000000 		.word	.LC5
 358 00e4 40000000 		.word	.LC6
 359 00e8 50000000 		.word	.LC7
 360 00ec 58000000 		.word	.LC8
 361 00f0 64000000 		.word	.LC9
 362 00f4 08000000 		.word	.LC1
 363 00f8 10000000 		.word	.LC2
 364              		.cfi_endproc
 365              	.LFE132:
 367              		.section	.rodata.CALLING_PHONE.str1.4,"aMS",%progbits,1
 368              		.align	2
 369              	.LC10:
 370 0000 41544430 		.ascii	"ATD0563461910;\015\012\000"
 370      35363334 
 370      36313931 
 370      303B0D0A 
 370      00
 371 0011 000000   		.align	2
 372              	.LC11:
 373 0014 4154480D 		.ascii	"ATH\015\012\000"
 373      0A00
 374              		.section	.text.CALLING_PHONE,"ax",%progbits
 375              		.align	1
 376              		.global	CALLING_PHONE
 377              		.syntax unified
 378              		.thumb
 379              		.thumb_func
 381              	CALLING_PHONE:
 382              	.LFB133:
  84:Core/Src/AT_COMMAND_TESTING_CN.c **** 
  85:Core/Src/AT_COMMAND_TESTING_CN.c **** void CALLING_PHONE(void)
  86:Core/Src/AT_COMMAND_TESTING_CN.c **** {
 383              		.loc 1 86 1 is_stmt 1 view -0
 384              		.cfi_startproc
 385              		@ args = 0, pretend = 0, frame = 48
 386              		@ frame_needed = 0, uses_anonymous_args = 0
 387 0000 00B5     		push	{lr}
 388              	.LCFI3:
 389              		.cfi_def_cfa_offset 4
 390              		.cfi_offset 14, -4
 391 0002 8DB0     		sub	sp, sp, #52
 392              	.LCFI4:
 393              		.cfi_def_cfa_offset 56
  87:Core/Src/AT_COMMAND_TESTING_CN.c **** 
  88:Core/Src/AT_COMMAND_TESTING_CN.c ****    MODULE_SIM7020C_TESTING __MODULE_SIM7020C_TESTING_FW;
 394              		.loc 1 88 4 view .LVU85
  89:Core/Src/AT_COMMAND_TESTING_CN.c **** 
  90:Core/Src/AT_COMMAND_TESTING_CN.c ****   __MODULE_SIM7020C_TESTING_FW.ATD        = "ATD0563461910;\r\n";
 395              		.loc 1 90 3 view .LVU86
 396              		.loc 1 90 43 is_stmt 0 view .LVU87
 397 0004 0648     		ldr	r0, .L16
 398 0006 0790     		str	r0, [sp, #28]
  91:Core/Src/AT_COMMAND_TESTING_CN.c ****   __MODULE_SIM7020C_TESTING_FW.ATH       = "ATH\r\n";
 399              		.loc 1 91 3 is_stmt 1 view .LVU88
 400              		.loc 1 91 42 is_stmt 0 view .LVU89
 401 0008 064B     		ldr	r3, .L16+4
 402 000a 0893     		str	r3, [sp, #32]
ARM GAS  /tmp/ccbaESsS.s 			page 10


  92:Core/Src/AT_COMMAND_TESTING_CN.c **** 
  93:Core/Src/AT_COMMAND_TESTING_CN.c ****  
  94:Core/Src/AT_COMMAND_TESTING_CN.c ****    SEND_STRING(__MODULE_SIM7020C_TESTING_FW.ATD);
 403              		.loc 1 94 4 is_stmt 1 view .LVU90
 404 000c FFF7FEFF 		bl	SEND_STRING
 405              	.LVL26:
  95:Core/Src/AT_COMMAND_TESTING_CN.c ****    HAL_Delay(1000);
 406              		.loc 1 95 4 view .LVU91
 407 0010 4FF47A70 		mov	r0, #1000
 408 0014 FFF7FEFF 		bl	HAL_Delay
 409              	.LVL27:
  96:Core/Src/AT_COMMAND_TESTING_CN.c **** 
  97:Core/Src/AT_COMMAND_TESTING_CN.c ****   //  SEND_STRING(__MODULE_SIM7020C_TESTING_FW.ATH);
  98:Core/Src/AT_COMMAND_TESTING_CN.c ****   //  HAL_Delay(1000);
  99:Core/Src/AT_COMMAND_TESTING_CN.c **** }
 410              		.loc 1 99 1 is_stmt 0 view .LVU92
 411 0018 0DB0     		add	sp, sp, #52
 412              	.LCFI5:
 413              		.cfi_def_cfa_offset 4
 414              		@ sp needed
 415 001a 5DF804FB 		ldr	pc, [sp], #4
 416              	.L17:
 417 001e 00BF     		.align	2
 418              	.L16:
 419 0020 00000000 		.word	.LC10
 420 0024 14000000 		.word	.LC11
 421              		.cfi_endproc
 422              	.LFE133:
 424              		.section	.rodata.SEND_SMS.str1.4,"aMS",%progbits,1
 425              		.align	2
 426              	.LC12:
 427 0000 41542B43 		.ascii	"AT+CMGF=1\015\012\000"
 427      4D47463D 
 427      310D0A00 
 428              		.align	2
 429              	.LC13:
 430 000c 41542B43 		.ascii	"AT+CMGS=\"+84563461910\"\015\000"
 430      4D47533D 
 430      222B3834 
 430      35363334 
 430      36313931 
 431              		.section	.text.SEND_SMS,"ax",%progbits
 432              		.align	1
 433              		.global	SEND_SMS
 434              		.syntax unified
 435              		.thumb
 436              		.thumb_func
 438              	SEND_SMS:
 439              	.LFB134:
 100:Core/Src/AT_COMMAND_TESTING_CN.c **** 
 101:Core/Src/AT_COMMAND_TESTING_CN.c **** void SEND_SMS(void)
 102:Core/Src/AT_COMMAND_TESTING_CN.c **** {
 440              		.loc 1 102 1 is_stmt 1 view -0
 441              		.cfi_startproc
 442              		@ args = 0, pretend = 0, frame = 48
 443              		@ frame_needed = 0, uses_anonymous_args = 0
 444 0000 00B5     		push	{lr}
ARM GAS  /tmp/ccbaESsS.s 			page 11


 445              	.LCFI6:
 446              		.cfi_def_cfa_offset 4
 447              		.cfi_offset 14, -4
 448 0002 8DB0     		sub	sp, sp, #52
 449              	.LCFI7:
 450              		.cfi_def_cfa_offset 56
 103:Core/Src/AT_COMMAND_TESTING_CN.c **** 
 104:Core/Src/AT_COMMAND_TESTING_CN.c ****    MODULE_SIM7020C_TESTING __MODULE_SIM7020C_TESTING_FW;
 451              		.loc 1 104 4 view .LVU94
 105:Core/Src/AT_COMMAND_TESTING_CN.c ****    __MODULE_SIM7020C_TESTING_FW.AT_CMGF        = "AT+CMGF=1\r\n";
 452              		.loc 1 105 4 view .LVU95
 453              		.loc 1 105 48 is_stmt 0 view .LVU96
 454 0004 094B     		ldr	r3, .L21
 455 0006 0993     		str	r3, [sp, #36]
 106:Core/Src/AT_COMMAND_TESTING_CN.c ****    __MODULE_SIM7020C_TESTING_FW.AT_CMGS       = "AT+CMGS=\"+84563461910\"\r";
 456              		.loc 1 106 4 is_stmt 1 view .LVU97
 457              		.loc 1 106 47 is_stmt 0 view .LVU98
 458 0008 094B     		ldr	r3, .L21+4
 459 000a 0A93     		str	r3, [sp, #40]
 107:Core/Src/AT_COMMAND_TESTING_CN.c ****    
 108:Core/Src/AT_COMMAND_TESTING_CN.c ****   //  SEND_STRING(__MODULE_SIM7020C_TESTING_FW.AT_CMGF);
 109:Core/Src/AT_COMMAND_TESTING_CN.c ****   //  HAL_Delay(1000);
 110:Core/Src/AT_COMMAND_TESTING_CN.c ****   //   SEND_STRING(__MODULE_SIM7020C_TESTING_FW.AT_CMGS);
 111:Core/Src/AT_COMMAND_TESTING_CN.c ****   //   HAL_Delay(1000);
 112:Core/Src/AT_COMMAND_TESTING_CN.c ****     
 113:Core/Src/AT_COMMAND_TESTING_CN.c **** 
 114:Core/Src/AT_COMMAND_TESTING_CN.c ****   //   SEND_STRING("ok t da gui duoc");
 115:Core/Src/AT_COMMAND_TESTING_CN.c ****  USART1->DR = ((char)(36));
 460              		.loc 1 115 2 is_stmt 1 view .LVU99
 461              		.loc 1 115 13 is_stmt 0 view .LVU100
 462 000c 094B     		ldr	r3, .L21+8
 463 000e 2422     		movs	r2, #36
 464 0010 5A60     		str	r2, [r3, #4]
 116:Core/Src/AT_COMMAND_TESTING_CN.c **** 	while (!(USART1->SR & (1<<6)));  
 465              		.loc 1 116 2 is_stmt 1 view .LVU101
 466              	.L19:
 467              		.loc 1 116 32 discriminator 1 view .LVU102
 468              		.loc 1 116 8 discriminator 1 view .LVU103
 469              		.loc 1 116 17 is_stmt 0 discriminator 1 view .LVU104
 470 0012 084B     		ldr	r3, .L21+8
 471 0014 1B68     		ldr	r3, [r3]
 472              		.loc 1 116 8 discriminator 1 view .LVU105
 473 0016 13F0400F 		tst	r3, #64
 474 001a FAD0     		beq	.L19
 117:Core/Src/AT_COMMAND_TESTING_CN.c ****     HAL_Delay(5000);
 475              		.loc 1 117 5 is_stmt 1 view .LVU106
 476 001c 41F28830 		movw	r0, #5000
 477 0020 FFF7FEFF 		bl	HAL_Delay
 478              	.LVL28:
 118:Core/Src/AT_COMMAND_TESTING_CN.c **** 
 119:Core/Src/AT_COMMAND_TESTING_CN.c **** 
 120:Core/Src/AT_COMMAND_TESTING_CN.c **** 
 121:Core/Src/AT_COMMAND_TESTING_CN.c **** }...
 479              		.loc 1 121 1 is_stmt 0 view .LVU107
 480 0024 0DB0     		add	sp, sp, #52
 481              	.LCFI8:
 482              		.cfi_def_cfa_offset 4
ARM GAS  /tmp/ccbaESsS.s 			page 12


 483              		@ sp needed
 484 0026 5DF804FB 		ldr	pc, [sp], #4
 485              	.L22:
 486 002a 00BF     		.align	2
 487              	.L21:
 488 002c 00000000 		.word	.LC12
 489 0030 0C000000 		.word	.LC13
 490 0034 00100140 		.word	1073811456
 491              		.cfi_endproc
 492              	.LFE134:
 494              		.text
 495              	.Letext0:
 496              		.file 2 "/home/cdp/Downloads/gcc-arm-none-eabi-10.3-2021.10/arm-none-eabi/include/machine/_default
 497              		.file 3 "/home/cdp/Downloads/gcc-arm-none-eabi-10.3-2021.10/arm-none-eabi/include/sys/_stdint.h"
 498              		.file 4 "Drivers/CMSIS/Device/ST/STM32F4xx/Include/stm32f411xe.h"
 499              		.file 5 "Core/Inc/AT_COMMAND_TESTING_CN.h"
 500              		.file 6 "Drivers/STM32F4xx_HAL_Driver/Inc/stm32f4xx_hal.h"
ARM GAS  /tmp/ccbaESsS.s 			page 13

